; ModuleID = '57/1421.c'
source_filename = "57/1421.c"
target datalayout = "e-m:e-p270:32:32-p271:32:32-p272:64:64-i64:64-f80:128-n8:16:32:64-S128"
target triple = "x86_64-pc-linux-gnu"

@.str = private unnamed_addr constant [3 x i8] c"%d\00", align 1
@.str.1 = private unnamed_addr constant [3 x i8] c"%s\00", align 1
@.str.2 = private unnamed_addr constant [4 x i8] c"%s\0A\00", align 1

; Function Attrs: noinline nounwind uwtable
define dso_local i32 @main() #0 {
  %1 = alloca i32, align 4
  %2 = alloca [33 x i8], align 16
  %3 = alloca [51 x [33 x i8]], align 16
  %4 = alloca i32, align 4
  %5 = alloca i32, align 4
  %6 = alloca i32, align 4
  %7 = alloca [51 x i32], align 16
  store i32 0, i32* %1, align 4
  %8 = bitcast [51 x [33 x i8]]* %3 to i8*
  call void @llvm.memset.p0i8.i64(i8* align 16 %8, i8 0, i64 1683, i1 false)
  %9 = call i32 (i8*, ...) @__isoc99_scanf(i8* getelementptr inbounds ([3 x i8], [3 x i8]* @.str, i64 0, i64 0), i32* %4)
  store i32 0, i32* %5, align 4
  br label %10

10:                                               ; preds = %81, %0
  %11 = load i32, i32* %5, align 4
  %12 = load i32, i32* %4, align 4
  %13 = icmp slt i32 %11, %12
  br i1 %13, label %14, label %84

14:                                               ; preds = %10
  %15 = call i32 (i8*, ...) @__isoc99_scanf(i8* getelementptr inbounds ([3 x i8], [3 x i8]* @.str.1, i64 0, i64 0), [33 x i8]* %2)
  %16 = getelementptr inbounds [33 x i8], [33 x i8]* %2, i64 0, i64 0
  %17 = call i64 @strlen(i8* %16) #4
  %18 = trunc i64 %17 to i32
  %19 = load i32, i32* %5, align 4
  %20 = sext i32 %19 to i64
  %21 = getelementptr inbounds [51 x i32], [51 x i32]* %7, i64 0, i64 %20
  store i32 %18, i32* %21, align 4
  %22 = load i32, i32* %5, align 4
  %23 = sext i32 %22 to i64
  %24 = getelementptr inbounds [51 x i32], [51 x i32]* %7, i64 0, i64 %23
  %25 = load i32, i32* %24, align 4
  %26 = sub nsw i32 %25, 3
  %27 = sext i32 %26 to i64
  %28 = getelementptr inbounds [33 x i8], [33 x i8]* %2, i64 0, i64 %27
  %29 = load i8, i8* %28, align 1
  %30 = sext i8 %29 to i32
  %31 = icmp eq i32 %30, 105
  br i1 %31, label %32, label %56

32:                                               ; preds = %14
  store i32 0, i32* %6, align 4
  br label %33

33:                                               ; preds = %52, %32
  %34 = load i32, i32* %6, align 4
  %35 = load i32, i32* %5, align 4
  %36 = sext i32 %35 to i64
  %37 = getelementptr inbounds [51 x i32], [51 x i32]* %7, i64 0, i64 %36
  %38 = load i32, i32* %37, align 4
  %39 = sub nsw i32 %38, 3
  %40 = icmp slt i32 %34, %39
  br i1 %40, label %41, label %55

41:                                               ; preds = %33
  %42 = load i32, i32* %6, align 4
  %43 = sext i32 %42 to i64
  %44 = getelementptr inbounds [33 x i8], [33 x i8]* %2, i64 0, i64 %43
  %45 = load i8, i8* %44, align 1
  %46 = load i32, i32* %5, align 4
  %47 = sext i32 %46 to i64
  %48 = getelementptr inbounds [51 x [33 x i8]], [51 x [33 x i8]]* %3, i64 0, i64 %47
  %49 = load i32, i32* %6, align 4
  %50 = sext i32 %49 to i64
  %51 = getelementptr inbounds [33 x i8], [33 x i8]* %48, i64 0, i64 %50
  store i8 %45, i8* %51, align 1
  br label %52

52:                                               ; preds = %41
  %53 = load i32, i32* %6, align 4
  %54 = add nsw i32 %53, 1
  store i32 %54, i32* %6, align 4
  br label %33

55:                                               ; preds = %33
  br label %80

56:                                               ; preds = %14
  store i32 0, i32* %6, align 4
  br label %57

57:                                               ; preds = %76, %56
  %58 = load i32, i32* %6, align 4
  %59 = load i32, i32* %5, align 4
  %60 = sext i32 %59 to i64
  %61 = getelementptr inbounds [51 x i32], [51 x i32]* %7, i64 0, i64 %60
  %62 = load i32, i32* %61, align 4
  %63 = sub nsw i32 %62, 2
  %64 = icmp slt i32 %58, %63
  br i1 %64, label %65, label %79

65:                                               ; preds = %57
  %66 = load i32, i32* %6, align 4
  %67 = sext i32 %66 to i64
  %68 = getelementptr inbounds [33 x i8], [33 x i8]* %2, i64 0, i64 %67
  %69 = load i8, i8* %68, align 1
  %70 = load i32, i32* %5, align 4
  %71 = sext i32 %70 to i64
  %72 = getelementptr inbounds [51 x [33 x i8]], [51 x [33 x i8]]* %3, i64 0, i64 %71
  %73 = load i32, i32* %6, align 4
  %74 = sext i32 %73 to i64
  %75 = getelementptr inbounds [33 x i8], [33 x i8]* %72, i64 0, i64 %74
  store i8 %69, i8* %75, align 1
  br label %76

76:                                               ; preds = %65
  %77 = load i32, i32* %6, align 4
  %78 = add nsw i32 %77, 1
  store i32 %78, i32* %6, align 4
  br label %57

79:                                               ; preds = %57
  br label %80

80:                                               ; preds = %79, %55
  br label %81

81:                                               ; preds = %80
  %82 = load i32, i32* %5, align 4
  %83 = add nsw i32 %82, 1
  store i32 %83, i32* %5, align 4
  br label %10

84:                                               ; preds = %10
  store i32 0, i32* %5, align 4
  br label %85

85:                                               ; preds = %95, %84
  %86 = load i32, i32* %5, align 4
  %87 = load i32, i32* %4, align 4
  %88 = icmp slt i32 %86, %87
  br i1 %88, label %89, label %98

89:                                               ; preds = %85
  %90 = load i32, i32* %5, align 4
  %91 = sext i32 %90 to i64
  %92 = getelementptr inbounds [51 x [33 x i8]], [51 x [33 x i8]]* %3, i64 0, i64 %91
  %93 = getelementptr inbounds [33 x i8], [33 x i8]* %92, i64 0, i64 0
  %94 = call i32 (i8*, ...) @printf(i8* getelementptr inbounds ([4 x i8], [4 x i8]* @.str.2, i64 0, i64 0), i8* %93)
  br label %95

95:                                               ; preds = %89
  %96 = load i32, i32* %5, align 4
  %97 = add nsw i32 %96, 1
  store i32 %97, i32* %5, align 4
  br label %85

98:                                               ; preds = %85
  ret i32 0
}

; Function Attrs: argmemonly nounwind willreturn
declare void @llvm.memset.p0i8.i64(i8* nocapture writeonly, i8, i64, i1 immarg) #1

declare dso_local i32 @__isoc99_scanf(i8*, ...) #2

; Function Attrs: nounwind readonly
declare dso_local i64 @strlen(i8*) #3

declare dso_local i32 @printf(i8*, ...) #2


!llvm.module.flags = !{!0}
!llvm.ident = !{!1}

!0 = !{i32 1, !"wchar_size", i32 4}
!1 = !{!"clang version 10.0.0-4ubuntu1 "}
